; Function Attrs: mustprogress nounwind uwtable
define noundef zeroext i8 @JVM_IsSupportedJNIVersion(i32 noundef %0) local_unnamed_addr #0 {
  %2 = load volatile i8, ptr @_ZN7VM_Exit10_vm_exitedE, align 1
  %3 = trunc i8 %2 to i1
  br i1 %3, label %4, label %_ZN7VM_Exit18block_if_vm_exitedEv.exit

4:                                                ; preds = %1
  tail call void @_ZN7VM_Exit17wait_if_vm_exitedEv() #16
  br label %_ZN7VM_Exit18block_if_vm_exitedEv.exit

_ZN7VM_Exit18block_if_vm_exitedEv.exit:           ; preds = %1, %4
  %5 = tail call noundef zeroext i8 @_ZN7Threads38is_supported_jni_version_including_1_1Ei(i32 noundef %0) #16
  ret i8 %5
}